; Function Attrs: mustprogress uwtable
define void @_ZN4LIEF3DEX5ClassC2ENSt7__cxx1112basic_stringIcSt11char_traitsIcESaIcEEEjPS1_S7_(ptr noundef nonnull align 8 dereferenceable(140) %0, ptr noundef %1, i32 noundef %2, ptr noundef %3, ptr noundef %4) unnamed_addr #0 align 2 {
  tail call void @_ZN4LIEF6ObjectC2Ev(ptr noundef nonnull align 8 dereferenceable(8) %0)
  store ptr getelementptr inbounds ({ [7 x ptr] }, ptr @_ZTVN4LIEF3DEX5ClassE, i64 0, i32 0, i64 2), ptr %0, align 8
  %6 = getelementptr inbounds i8, ptr %0, i64 8
  tail call void @_ZNSt7__cxx1112basic_stringIcSt11char_traitsIcESaIcEEC1EOS4_(ptr noundef nonnull align 8 dereferenceable(32) %6, ptr noundef nonnull align 8 dereferenceable(32) %1) #17
  %7 = getelementptr inbounds i8, ptr %0, i64 40
  store i32 %2, ptr %7, align 8
  %8 = getelementptr inbounds i8, ptr %0, i64 48
  store ptr %3, ptr %8, align 8
  %9 = getelementptr inbounds i8, ptr %0, i64 56
  %10 = getelementptr inbounds i8, ptr %0, i64 104
  tail call void @llvm.memset.p0.i64(ptr noundef nonnull align 8 dereferenceable(48) %9, i8 0, i64 48, i1 false)
  tail call void @_ZNSt7__cxx1112basic_stringIcSt11char_traitsIcESaIcEEC1EOS4_(ptr noundef nonnull align 8 dereferenceable(32) %10, ptr noundef nonnull align 8 dereferenceable(32) %4) #17
  %11 = getelementptr inbounds i8, ptr %0, i64 136
  store i32 -1, ptr %11, align 8
  ret void
}